; Function Attrs: mustprogress uwtable
define hidden void @_ZN6Assimp11XFileParser17CheckForSemicolonEv(ptr noundef nonnull align 8 dereferenceable(56) %this) local_unnamed_addr #0 align 2 personality ptr @__gxx_personality_v0 {
entry:
  %ref.tmp = alloca %"class.std::__cxx11::basic_string", align 8
  %mIsBinaryFormat = getelementptr inbounds i8, ptr %this, i64 8
  %0 = load i8, ptr %mIsBinaryFormat, align 8
  %1 = and i8 %0, 1
  %tobool.not = icmp eq i8 %1, 0
  br i1 %tobool.not, label %if.end, label %if.end3

if.end:                                           ; preds = %entry
  call void @_ZN6Assimp11XFileParser12GetNextTokenB5cxx11Ev(ptr nonnull sret(%"class.std::__cxx11::basic_string") align 8 %ref.tmp, ptr noundef nonnull align 8 dereferenceable(56) %this)
  %call.i.i = call noundef i32 @_ZNKSt7__cxx1112basic_stringIcSt11char_traitsIcESaIcEE7compareEPKc(ptr noundef nonnull align 8 dereferenceable(32) %ref.tmp, ptr noundef nonnull @.str.46) #21
  %cmp.i.i.not = icmp eq i32 %call.i.i, 0
  call void @_ZNSt7__cxx1112basic_stringIcSt11char_traitsIcESaIcEED1Ev(ptr noundef nonnull align 8 dereferenceable(32) %ref.tmp) #21
  br i1 %cmp.i.i.not, label %if.end3, label %if.then2

if.then2:                                         ; preds = %if.end
  call void @_ZN6Assimp11XFileParser14ThrowExceptionIJRA20_KcEEEvDpOT_(ptr noundef nonnull align 8 dereferenceable(56) %this, ptr noundef nonnull align 1 dereferenceable(20) @.str.72) #23
  unreachable

if.end3:                                          ; preds = %entry, %if.end
  ret void
}